target datalayout = "e-m:e-p270:32:32-p271:32:32-p272:64:64-i64:64-i128:128-f80:128-n8:16:32:64-S128"
target triple = "x86_64-pc-linux-gnu"

@threads = dso_local global i16 1, align 2
@.str.14 = private unnamed_addr constant [11 x i8] c"xcpuinfo.c\00", align 1
@block_map_size = dso_local global i16 0, align 2
@__func__.xcpuinfo_abs_to_map = private unnamed_addr constant [20 x i8] c"xcpuinfo_abs_to_map\00", align 1

; Function Attrs: inlinehint nounwind willreturn memory(read) uwtable
define available_externally i32 @atoi(ptr noundef nonnull %0) #5 {
  %2 = alloca ptr, align 8
  store ptr %0, ptr %2, align 8
  %3 = load ptr, ptr %2, align 8
  %4 = call i64 @strtol(ptr noundef %3, ptr noundef null, i32 noundef 10) #9
  %5 = trunc i64 %4 to i32
  ret i32 %5
}

; Function Attrs: nounwind uwtable
define internal i32 @_range_to_map(ptr noundef %0, ptr noundef %1, i16 noundef zeroext %2, i32 noundef %3) #0 {
  %5 = alloca i32, align 4
  %6 = alloca ptr, align 8
  %7 = alloca ptr, align 8
  %8 = alloca i16, align 2
  %9 = alloca i32, align 4
  %10 = alloca i32, align 4
  %11 = alloca i32, align 4
  %12 = alloca i32, align 4
  %13 = alloca i32, align 4
  %14 = alloca ptr, align 8
  %15 = alloca ptr, align 8
  %16 = alloca ptr, align 8
  %17 = alloca i16, align 2
  %18 = alloca i16, align 2
  %19 = alloca i16, align 2
  %20 = alloca i32, align 4
  store ptr %0, ptr %6, align 8
  store ptr %1, ptr %7, align 8
  store i16 %2, ptr %8, align 2
  store i32 %3, ptr %9, align 4
  call void @llvm.lifetime.start.p0(i64 4, ptr %10) #9
  store i32 0, ptr %10, align 4
  call void @llvm.lifetime.start.p0(i64 4, ptr %11) #9
  store i32 0, ptr %11, align 4
  call void @llvm.lifetime.start.p0(i64 4, ptr %12) #9
  store i32 0, ptr %12, align 4
  call void @llvm.lifetime.start.p0(i64 4, ptr %13) #9
  store i32 0, ptr %13, align 4
  call void @llvm.lifetime.start.p0(i64 8, ptr %14) #9
  call void @llvm.lifetime.start.p0(i64 8, ptr %15) #9
  call void @llvm.lifetime.start.p0(i64 8, ptr %16) #9
  store ptr null, ptr %16, align 8
  call void @llvm.lifetime.start.p0(i64 2, ptr %17) #9
  store i16 0, ptr %17, align 2
  call void @llvm.lifetime.start.p0(i64 2, ptr %18) #9
  store i16 0, ptr %18, align 2
  call void @llvm.lifetime.start.p0(i64 2, ptr %19) #9
  %21 = load ptr, ptr %6, align 8
  %22 = call ptr @xstrdup(ptr noundef %21)
  store ptr %22, ptr %14, align 8
  %23 = load ptr, ptr %14, align 8
  store ptr %23, ptr %15, align 8
  br label %24

24:                                               ; preds = %149, %4
  %25 = load i32, ptr %13, align 4
  %26 = icmp ne i32 %25, 0
  %27 = xor i1 %26, true
  br i1 %27, label %28, label %152

28:                                               ; preds = %24
  %29 = call ptr @__ctype_b_loc() #12
  %30 = load ptr, ptr %29, align 8
  %31 = load ptr, ptr %15, align 8
  %32 = load i8, ptr %31, align 1
  %33 = sext i8 %32 to i32
  %34 = sext i32 %33 to i64
  %35 = getelementptr inbounds i16, ptr %30, i64 %34
  %36 = load i16, ptr %35, align 2
  %37 = zext i16 %36 to i32
  %38 = and i32 %37, 2048
  %39 = icmp ne i32 %38, 0
  br i1 %39, label %40, label %48

40:                                               ; preds = %28
  %41 = load i32, ptr %11, align 4
  %42 = icmp ne i32 %41, 0
  br i1 %42, label %47, label %43

43:                                               ; preds = %40
  %44 = load i32, ptr %11, align 4
  %45 = add nsw i32 %44, 1
  store i32 %45, ptr %11, align 4
  %46 = load ptr, ptr %15, align 8
  store ptr %46, ptr %16, align 8
  br label %47

47:                                               ; preds = %43, %40
  br label %103

48:                                               ; preds = %28
  %49 = load ptr, ptr %15, align 8
  %50 = load i8, ptr %49, align 1
  %51 = sext i8 %50 to i32
  %52 = icmp eq i32 %51, 45
  br i1 %52, label %53, label %65

53:                                               ; preds = %48
  %54 = load ptr, ptr %16, align 8
  %55 = icmp ne ptr %54, null
  br i1 %55, label %56, label %64

56:                                               ; preds = %53
  %57 = load i32, ptr %11, align 4
  %58 = icmp ne i32 %57, 0
  br i1 %58, label %59, label %64

59:                                               ; preds = %56
  %60 = load ptr, ptr %15, align 8
  store i8 0, ptr %60, align 1
  %61 = load ptr, ptr %16, align 8
  %62 = call i32 @atoi(ptr noundef %61) #10
  %63 = trunc i32 %62 to i16
  store i16 %63, ptr %17, align 2
  store i32 1, ptr %12, align 4
  store i32 0, ptr %11, align 4
  store ptr null, ptr %16, align 8
  br label %64

64:                                               ; preds = %59, %56, %53
  br label %102

65:                                               ; preds = %48
  %66 = load ptr, ptr %15, align 8
  %67 = load i8, ptr %66, align 1
  %68 = sext i8 %67 to i32
  %69 = icmp eq i32 %68, 44
  br i1 %69, label %75, label %70

70:                                               ; preds = %65
  %71 = load ptr, ptr %15, align 8
  %72 = load i8, ptr %71, align 1
  %73 = sext i8 %72 to i32
  %74 = icmp eq i32 %73, 0
  br i1 %74, label %75, label %98

75:                                               ; preds = %70, %65
  %76 = load ptr, ptr %15, align 8
  %77 = load i8, ptr %76, align 1
  %78 = sext i8 %77 to i32
  %79 = icmp eq i32 %78, 0
  br i1 %79, label %80, label %81

80:                                               ; preds = %75
  store i32 1, ptr %13, align 4
  br label %81

81:                                               ; preds = %80, %75
  %82 = load ptr, ptr %16, align 8
  %83 = icmp ne ptr %82, null
  br i1 %83, label %84, label %97

84:                                               ; preds = %81
  %85 = load i32, ptr %11, align 4
  %86 = icmp ne i32 %85, 0
  br i1 %86, label %87, label %97

87:                                               ; preds = %84
  %88 = load ptr, ptr %15, align 8
  store i8 0, ptr %88, align 1
  %89 = load ptr, ptr %16, align 8
  %90 = call i32 @atoi(ptr noundef %89) #10
  %91 = trunc i32 %90 to i16
  store i16 %91, ptr %18, align 2
  %92 = load i32, ptr %12, align 4
  %93 = icmp ne i32 %92, 0
  br i1 %93, label %96, label %94

94:                                               ; preds = %87
  %95 = load i16, ptr %18, align 2
  store i16 %95, ptr %17, align 2
  br label %96

96:                                               ; preds = %94, %87
  store i32 2, ptr %12, align 4
  store i32 0, ptr %11, align 4
  store ptr null, ptr %16, align 8
  br label %97

97:                                               ; preds = %96, %84, %81
  br label %101

98:                                               ; preds = %70
  %99 = load i32, ptr %10, align 4
  %100 = add nsw i32 %99, 1
  store i32 %100, ptr %10, align 4
  br label %152

101:                                              ; preds = %97
  br label %102

102:                                              ; preds = %101, %64
  br label %103

103:                                              ; preds = %102, %47
  %104 = load i32, ptr %12, align 4
  %105 = icmp eq i32 %104, 2
  br i1 %105, label %106, label %149

106:                                              ; preds = %103
  %107 = load i32, ptr %9, align 4
  %108 = icmp ne i32 %107, 0
  br i1 %108, label %109, label %124

109:                                              ; preds = %106
  %110 = load i16, ptr %17, align 2
  %111 = zext i16 %110 to i32
  %112 = load i16, ptr @threads, align 2
  %113 = zext i16 %112 to i32
  %114 = mul nsw i32 %111, %113
  %115 = trunc i32 %114 to i16
  store i16 %115, ptr %17, align 2
  %116 = load i16, ptr %18, align 2
  %117 = zext i16 %116 to i32
  %118 = add nsw i32 %117, 1
  %119 = load i16, ptr @threads, align 2
  %120 = zext i16 %119 to i32
  %121 = mul nsw i32 %118, %120
  %122 = sub nsw i32 %121, 1
  %123 = trunc i32 %122 to i16
  store i16 %123, ptr %18, align 2
  br label %124

124:                                              ; preds = %109, %106
  %125 = load i16, ptr %17, align 2
  store i16 %125, ptr %19, align 2
  br label %126

126:                                              ; preds = %145, %124
  %127 = load i16, ptr %19, align 2
  %128 = zext i16 %127 to i32
  %129 = load i16, ptr %18, align 2
  %130 = zext i16 %129 to i32
  %131 = icmp sle i32 %128, %130
  br i1 %131, label %132, label %138

132:                                              ; preds = %126
  %133 = load i16, ptr %19, align 2
  %134 = zext i16 %133 to i32
  %135 = load i16, ptr %8, align 2
  %136 = zext i16 %135 to i32
  %137 = icmp slt i32 %134, %136
  br label %138

138:                                              ; preds = %132, %126
  %139 = phi i1 [ false, %126 ], [ %137, %132 ]
  br i1 %139, label %140, label %148

140:                                              ; preds = %138
  %141 = load ptr, ptr %7, align 8
  %142 = load i16, ptr %19, align 2
  %143 = zext i16 %142 to i64
  %144 = getelementptr inbounds nuw i16, ptr %141, i64 %143
  store i16 1, ptr %144, align 2
  br label %145

145:                                              ; preds = %140
  %146 = load i16, ptr %19, align 2
  %147 = add i16 %146, 1
  store i16 %147, ptr %19, align 2
  br label %126, !llvm.loop !30

148:                                              ; preds = %138
  store i32 0, ptr %12, align 4
  br label %149

149:                                              ; preds = %148, %103
  %150 = load ptr, ptr %15, align 8
  %151 = getelementptr inbounds nuw i8, ptr %150, i32 1
  store ptr %151, ptr %15, align 8
  br label %24, !llvm.loop !31

152:                                              ; preds = %98, %24
  call void @slurm_xfree(ptr noundef %14)
  %153 = load i32, ptr %10, align 4
  %154 = icmp sgt i32 %153, 0
  br i1 %154, label %155, label %156

155:                                              ; preds = %152
  store i32 -1, ptr %5, align 4
  store i32 1, ptr %20, align 4
  br label %157

156:                                              ; preds = %152
  store i32 0, ptr %5, align 4
  store i32 1, ptr %20, align 4
  br label %157

157:                                              ; preds = %156, %155
  call void @llvm.lifetime.end.p0(i64 2, ptr %19) #9
  call void @llvm.lifetime.end.p0(i64 2, ptr %18) #9
  call void @llvm.lifetime.end.p0(i64 2, ptr %17) #9
  call void @llvm.lifetime.end.p0(i64 8, ptr %16) #9
  call void @llvm.lifetime.end.p0(i64 8, ptr %15) #9
  call void @llvm.lifetime.end.p0(i64 8, ptr %14) #9
  call void @llvm.lifetime.end.p0(i64 4, ptr %13) #9
  call void @llvm.lifetime.end.p0(i64 4, ptr %12) #9
  call void @llvm.lifetime.end.p0(i64 4, ptr %11) #9
  call void @llvm.lifetime.end.p0(i64 4, ptr %10) #9
  %158 = load i32, ptr %5, align 4
  ret i32 %158
}

; Function Attrs: nounwind uwtable
define dso_local i32 @xcpuinfo_abs_to_map(ptr noundef %0, ptr noundef %1, ptr noundef %2) #0 {
  %4 = alloca ptr, align 8
  %5 = alloca ptr, align 8
  %6 = alloca ptr, align 8
  store ptr %0, ptr %4, align 8
  store ptr %1, ptr %5, align 8
  store ptr %2, ptr %6, align 8
  %7 = load i16, ptr @block_map_size, align 2
  %8 = load ptr, ptr %6, align 8
  store i16 %7, ptr %8, align 2
  %9 = load i16, ptr @block_map_size, align 2
  %10 = zext i16 %9 to i64
  %11 = call ptr @slurm_xcalloc(i64 noundef %10, i64 noundef 2, i1 noundef zeroext true, i1 noundef zeroext false, ptr noundef @.str.14, i32 noundef 1320, ptr noundef @__func__.xcpuinfo_abs_to_map)
  %12 = load ptr, ptr %5, align 8
  store ptr %11, ptr %12, align 8
  %13 = load ptr, ptr %4, align 8
  %14 = load ptr, ptr %5, align 8
  %15 = load ptr, ptr %14, align 8
  %16 = load ptr, ptr %6, align 8
  %17 = load i16, ptr %16, align 2
  %18 = call i32 @_range_to_map(ptr noundef %13, ptr noundef %15, i16 noundef zeroext %17, i32 noundef 1)
  ret i32 %18
}