; Function Attrs: nounwind uwtable
define dso_local range(i32 -1, 1) i32 @xcpuinfo_abs_to_map(ptr noundef %0, ptr noundef writeonly captures(none) initializes((0, 8)) %1, ptr noundef captures(none) initializes((0, 2)) %2) local_unnamed_addr #0 {
  %4 = alloca ptr, align 8
  %5 = load i16, ptr @block_map_size, align 2
  store i16 %5, ptr %2, align 2
  %6 = zext i16 %5 to i64
  %7 = tail call ptr @slurm_xcalloc(i64 noundef %6, i64 noundef 2, i1 noundef zeroext true, i1 noundef zeroext false, ptr noundef nonnull @.str.14, i32 noundef 1320, ptr noundef nonnull @__func__.xcpuinfo_abs_to_map) #12
  store ptr %7, ptr %1, align 8
  %8 = load i16, ptr %2, align 2
  call void @llvm.lifetime.start.p0(i64 8, ptr nonnull %4) #12
  %9 = tail call ptr @xstrdup(ptr noundef %0) #12
  store ptr %9, ptr %4, align 8
  %10 = tail call ptr @__ctype_b_loc() #15
  %11 = zext i16 %8 to i64
  br label %.outer.i

.outer.i:                                         ; preds = %.outer.backedge.i, %3
  %.03977.ph.i = phi i16 [ 0, %3 ], [ %.03977.ph.be.i, %.outer.backedge.i ]
  %.04376.ph.i = phi ptr [ null, %3 ], [ %.04376.ph.be.i, %.outer.backedge.i ]
  %.04575.ph.i = phi ptr [ %9, %3 ], [ %.04575.ph.be.i, %.outer.backedge.i ]
  %.04973.ph.i = phi i32 [ 0, %3 ], [ %.04973.ph.be.i, %.outer.backedge.i ]
  %.05272.ph.i = phi i32 [ 0, %3 ], [ %.05272.ph.be.i, %.outer.backedge.i ]
  %12 = load ptr, ptr %10, align 8
  %13 = load i8, ptr %.04575.ph.i, align 1
  %14 = sext i8 %13 to i64
  %15 = getelementptr inbounds i16, ptr %12, i64 %14
  %16 = load i16, ptr %15, align 2
  %17 = and i16 %16, 2048
  %.not57.i10 = icmp eq i16 %17, 0
  br i1 %.not57.i10, label %._crit_edge, label %.lr.ph.preheader

.lr.ph.preheader:                                 ; preds = %.outer.i
  %18 = icmp eq i32 %.05272.ph.i, 0
  %19 = select i1 %18, ptr %.04575.ph.i, ptr %.04376.ph.i
  br label %.lr.ph

.lr.ph:                                           ; preds = %.lr.ph.preheader, %.lr.ph
  %.04575.i12 = phi ptr [ %20, %.lr.ph ], [ %.04575.ph.i, %.lr.ph.preheader ]
  %20 = getelementptr inbounds nuw i8, ptr %.04575.i12, i64 1
  %21 = load i8, ptr %20, align 1
  %22 = sext i8 %21 to i64
  %23 = getelementptr inbounds i16, ptr %12, i64 %22
  %24 = load i16, ptr %23, align 2
  %25 = and i16 %24, 2048
  %.not57.i = icmp eq i16 %25, 0
  br i1 %.not57.i, label %._crit_edge, label %.lr.ph, !llvm.loop !31

._crit_edge:                                      ; preds = %.lr.ph, %.outer.i
  %.04376.i.lcssa = phi ptr [ %.04376.ph.i, %.outer.i ], [ %19, %.lr.ph ]
  %.04575.i.lcssa = phi ptr [ %.04575.ph.i, %.outer.i ], [ %20, %.lr.ph ]
  %.05272.i.lcssa = phi i32 [ %.05272.ph.i, %.outer.i ], [ 1, %.lr.ph ]
  %.lcssa = phi i8 [ %13, %.outer.i ], [ %21, %.lr.ph ]
  switch i8 %.lcssa, label %_range_to_map.exit [
    i8 45, label %26
    i8 44, label %32
    i8 0, label %32
  ]

26:                                               ; preds = %._crit_edge
  %27 = icmp ne ptr %.04376.i.lcssa, null
  %28 = icmp ne i32 %.05272.i.lcssa, 0
  %or.cond.i = select i1 %27, i1 %28, i1 false
  br i1 %or.cond.i, label %29, label %.outer.backedge.i

29:                                               ; preds = %26
  store i8 0, ptr %.04575.i.lcssa, align 1
  %30 = tail call i64 @strtol(ptr noundef nonnull captures(none) %.04376.i.lcssa, ptr noundef null, i32 noundef 10) #12
  %31 = trunc i64 %30 to i16
  br label %.outer.backedge.i

32:                                               ; preds = %._crit_edge, %._crit_edge
  %33 = icmp eq i8 %.lcssa, 0
  %34 = icmp ne ptr %.04376.i.lcssa, null
  %35 = icmp ne i32 %.05272.i.lcssa, 0
  %or.cond3.i = select i1 %34, i1 %35, i1 false
  br i1 %or.cond3.i, label %36, label %.thread.i

36:                                               ; preds = %32
  store i8 0, ptr %.04575.i.lcssa, align 1
  %37 = tail call i64 @strtol(ptr noundef nonnull captures(none) %.04376.i.lcssa, ptr noundef null, i32 noundef 10) #12
  %38 = trunc i64 %37 to i16
  %.not58.i = icmp eq i32 %.04973.ph.i, 0
  %spec.select61.i = select i1 %.not58.i, i16 %38, i16 %.03977.ph.i
  %39 = load i16, ptr @threads, align 2
  %40 = mul i16 %spec.select61.i, %39
  %41 = add i16 %38, 1
  %42 = mul i16 %41, %39
  %43 = add i16 %42, -1
  %44 = icmp ule i16 %40, %43
  %45 = icmp ult i16 %40, %8
  %46 = and i1 %45, %44
  br i1 %46, label %.lr.ph.preheader.i, label %.thread.i

.lr.ph.preheader.i:                               ; preds = %36
  %47 = zext i16 %40 to i64
  %48 = zext i16 %43 to i64
  br label %.lr.ph.i

.lr.ph.i:                                         ; preds = %.lr.ph.i, %.lr.ph.preheader.i
  %indvars.iv.i = phi i64 [ %47, %.lr.ph.preheader.i ], [ %indvars.iv.next.i, %.lr.ph.i ]
  %49 = getelementptr inbounds nuw i16, ptr %7, i64 %indvars.iv.i
  store i16 1, ptr %49, align 2
  %indvars.iv.next.i = add nuw nsw i64 %indvars.iv.i, 1
  %50 = icmp samesign ult i64 %indvars.iv.i, %48
  %51 = icmp samesign ult i64 %indvars.iv.next.i, %11
  %52 = and i1 %50, %51
  br i1 %52, label %.lr.ph.i, label %.thread.i, !llvm.loop !32

.thread.i:                                        ; preds = %.lr.ph.i, %36, %32
  %.14470.i = phi ptr [ %.04376.i.lcssa, %32 ], [ null, %36 ], [ null, %.lr.ph.i ]
  %.15368.i = phi i32 [ %.05272.i.lcssa, %32 ], [ 0, %36 ], [ 0, %.lr.ph.i ]
  %.251.i = phi i32 [ %.04973.ph.i, %32 ], [ 0, %36 ], [ 0, %.lr.ph.i ]
  %.342.i = phi i16 [ %.03977.ph.i, %32 ], [ %40, %36 ], [ %40, %.lr.ph.i ]
  br i1 %33, label %_range_to_map.exit, label %.outer.backedge.i

.outer.backedge.i:                                ; preds = %26, %.thread.i, %29
  %.03977.ph.be.i = phi i16 [ %31, %29 ], [ %.342.i, %.thread.i ], [ %.03977.ph.i, %26 ]
  %.04376.ph.be.i = phi ptr [ null, %29 ], [ %.14470.i, %.thread.i ], [ %.04376.i.lcssa, %26 ]
  %.04973.ph.be.i = phi i32 [ 1, %29 ], [ %.251.i, %.thread.i ], [ %.04973.ph.i, %26 ]
  %.05272.ph.be.i = phi i32 [ 0, %29 ], [ %.15368.i, %.thread.i ], [ %.05272.i.lcssa, %26 ]
  %.04575.ph.be.i = getelementptr inbounds nuw i8, ptr %.04575.i.lcssa, i64 1
  br label %.outer.i, !llvm.loop !31

_range_to_map.exit:                               ; preds = %._crit_edge, %.thread.i
  %.not.lcssa.i = phi i32 [ -1, %._crit_edge ], [ 0, %.thread.i ]
  call void @slurm_xfree(ptr noundef nonnull %4) #12
  call void @llvm.lifetime.end.p0(i64 8, ptr nonnull %4) #12
  ret i32 %.not.lcssa.i
}